target datalayout = "e-m:e-p270:32:32-p271:32:32-p272:64:64-i64:64-i128:128-f80:128-n8:16:32:64-S128"
target triple = "x86_64-pc-linux-gnu"

%struct.ossl_param_st = type { ptr, i32, ptr, i64, i64 }
%struct.fake_rsa_keydata = type { i32, i32 }

@key_deleted = internal global i32 0, align 4
@.str.9 = private unnamed_addr constant [31 x i8] c"../openssl/test/fake_rsaprov.c\00", align 1
@.str.22 = private unnamed_addr constant [2 x i8] c"0\00", align 1
@.str.31 = private unnamed_addr constant [54 x i8] c"key = OPENSSL_zalloc(sizeof(struct fake_rsa_keydata))\00", align 1
@has_selection = internal global i32 0, align 4
@imptypes_selection = internal global i32 0, align 4
@exptypes_selection = internal global i32 0, align 4
@query_id = internal global i32 0, align 4
@.str.32 = private unnamed_addr constant [4 x i8] c"RSA\00", align 1
@.str.49 = private unnamed_addr constant [33 x i8] c"key = fake_rsa_keymgmt_new(NULL)\00", align 1
@.str.50 = private unnamed_addr constant [38 x i8] c"fake_rsa_keymgmt_import(key, 0, NULL)\00", align 1
@.str.51 = private unnamed_addr constant [5 x i8] c"type\00", align 1
@.str.52 = private unnamed_addr constant [10 x i8] c"data-type\00", align 1
@.str.53 = private unnamed_addr constant [10 x i8] c"reference\00", align 1
@.str.54 = private unnamed_addr constant [38 x i8] c"fake_rsa_load() called in error state\00", align 1
@.str.55 = private unnamed_addr constant [36 x i8] c"fake_rsa_load() called in eof state\00", align 1
@.str.56 = private unnamed_addr constant [30 x i8] c"fake_rsa_load called - rv: %d\00", align 1

; Function Attrs: nounwind uwtable
define internal void @fake_rsa_keymgmt_free(ptr noundef %0) #0 {
  %2 = alloca ptr, align 8
  store ptr %0, ptr %2, align 8, !tbaa !19
  %3 = load ptr, ptr %2, align 8, !tbaa !19
  call void @CRYPTO_free(ptr noundef %3, ptr noundef @.str.9, i32 noundef 63)
  ret void
}

; Function Attrs: nounwind uwtable
define internal i32 @fake_rsa_keymgmt_import(ptr noundef %0, i32 noundef %1, ptr noundef %2) #0 {
  %4 = alloca ptr, align 8
  %5 = alloca i32, align 4
  %6 = alloca ptr, align 8
  %7 = alloca ptr, align 8
  store ptr %0, ptr %4, align 8, !tbaa !19
  store i32 %1, ptr %5, align 4, !tbaa !4
  store ptr %2, ptr %6, align 8, !tbaa !24
  call void @llvm.lifetime.start.p0(i64 8, ptr %7) #6
  %8 = load ptr, ptr %4, align 8, !tbaa !19
  store ptr %8, ptr %7, align 8, !tbaa !26
  %9 = load ptr, ptr %7, align 8, !tbaa !26
  %10 = getelementptr inbounds nuw %struct.fake_rsa_keydata, ptr %9, i32 0, i32 1
  store i32 1, ptr %10, align 4, !tbaa !28
  call void @llvm.lifetime.end.p0(i64 8, ptr %7) #6
  ret i32 1
}

; Function Attrs: nounwind uwtable
define internal ptr @fake_rsa_keymgmt_new(ptr noundef %0) #0 {
  %2 = alloca ptr, align 8
  %3 = alloca ptr, align 8
  %4 = alloca ptr, align 8
  %5 = alloca i32, align 4
  store ptr %0, ptr %3, align 8, !tbaa !19
  call void @llvm.lifetime.start.p0(i64 8, ptr %4) #6
  %6 = call noalias ptr @CRYPTO_zalloc(i64 noundef 8, ptr noundef @.str.9, i32 noundef 49)
  store ptr %6, ptr %4, align 8, !tbaa !26
  %7 = call i32 @test_ptr(ptr noundef @.str.9, i32 noundef 49, ptr noundef @.str.31, ptr noundef %6)
  %8 = icmp ne i32 %7, 0
  br i1 %8, label %10, label %9

9:                                                ; preds = %1
  store ptr null, ptr %2, align 8
  store i32 1, ptr %5, align 4
  br label %12

10:                                               ; preds = %1
  store i32 0, ptr @has_selection, align 4, !tbaa !4
  store i32 0, ptr @imptypes_selection, align 4, !tbaa !4
  store i32 0, ptr @exptypes_selection, align 4, !tbaa !4
  store i32 0, ptr @query_id, align 4, !tbaa !4
  %11 = load ptr, ptr %4, align 8, !tbaa !26
  store ptr %11, ptr %2, align 8
  store i32 1, ptr %5, align 4
  br label %12

12:                                               ; preds = %10, %9
  call void @llvm.lifetime.end.p0(i64 8, ptr %4) #6
  %13 = load ptr, ptr %2, align 8
  ret ptr %13
}

; Function Attrs: nounwind uwtable
define internal i32 @fake_rsa_st_load(ptr noundef %0, ptr noundef %1, ptr noundef %2, ptr noundef %3, ptr noundef %4) #0 {
  %6 = alloca ptr, align 8
  %7 = alloca ptr, align 8
  %8 = alloca ptr, align 8
  %9 = alloca ptr, align 8
  %10 = alloca ptr, align 8
  %11 = alloca ptr, align 8
  %12 = alloca [4 x %struct.ossl_param_st], align 16
  %13 = alloca i32, align 4
  %14 = alloca ptr, align 8
  %15 = alloca i32, align 4
  %16 = alloca %struct.ossl_param_st, align 8
  %17 = alloca %struct.ossl_param_st, align 8
  %18 = alloca %struct.ossl_param_st, align 8
  %19 = alloca %struct.ossl_param_st, align 8
  store ptr %0, ptr %6, align 8, !tbaa !19
  store ptr %1, ptr %7, align 8, !tbaa !19
  store ptr %2, ptr %8, align 8, !tbaa !19
  store ptr %3, ptr %9, align 8, !tbaa !19
  store ptr %4, ptr %10, align 8, !tbaa !19
  call void @llvm.lifetime.start.p0(i64 8, ptr %11) #6
  %20 = load ptr, ptr %6, align 8, !tbaa !19
  store ptr %20, ptr %11, align 8, !tbaa !22
  call void @llvm.lifetime.start.p0(i64 160, ptr %12) #6
  call void @llvm.lifetime.start.p0(i64 4, ptr %13) #6
  store i32 2, ptr %13, align 4, !tbaa !4
  call void @llvm.lifetime.start.p0(i64 8, ptr %14) #6
  store ptr null, ptr %14, align 8, !tbaa !26
  call void @llvm.lifetime.start.p0(i64 4, ptr %15) #6
  store i32 0, ptr %15, align 4, !tbaa !4
  %21 = load ptr, ptr %11, align 8, !tbaa !22
  %22 = load i8, ptr %21, align 1, !tbaa !30
  %23 = zext i8 %22 to i32
  switch i32 %23, label %51 [
    i32 0, label %24
    i32 2, label %50
  ]

24:                                               ; preds = %5
  %25 = load i32, ptr @key_deleted, align 4, !tbaa !4
  %26 = icmp eq i32 %25, 1
  br i1 %26, label %27, label %29

27:                                               ; preds = %24
  %28 = load ptr, ptr %11, align 8, !tbaa !22
  store i8 1, ptr %28, align 1, !tbaa !30
  br label %52

29:                                               ; preds = %24
  %30 = call ptr @fake_rsa_keymgmt_new(ptr noundef null)
  store ptr %30, ptr %14, align 8, !tbaa !26
  %31 = call i32 @test_ptr(ptr noundef @.str.9, i32 noundef 629, ptr noundef @.str.49, ptr noundef %30)
  %32 = icmp ne i32 %31, 0
  br i1 %32, label %34, label %33

33:                                               ; preds = %29
  br label %52

34:                                               ; preds = %29
  %35 = load ptr, ptr %14, align 8, !tbaa !26
  %36 = call i32 @fake_rsa_keymgmt_import(ptr noundef %35, i32 noundef 0, ptr noundef null)
  %37 = call i32 @test_int_gt(ptr noundef @.str.9, i32 noundef 631, ptr noundef @.str.50, ptr noundef @.str.22, i32 noundef %36, i32 noundef 0)
  %38 = icmp ne i32 %37, 0
  br i1 %38, label %40, label %39

39:                                               ; preds = %34
  br label %52

40:                                               ; preds = %34
  %41 = getelementptr inbounds [4 x %struct.ossl_param_st], ptr %12, i64 0, i64 0
  call void @llvm.lifetime.start.p0(i64 40, ptr %16) #6
  call void @OSSL_PARAM_construct_int(ptr dead_on_unwind writable sret(%struct.ossl_param_st) align 8 %16, ptr noundef @.str.51, ptr noundef %13)
  call void @llvm.memcpy.p0.p0.i64(ptr align 16 %41, ptr align 8 %16, i64 40, i1 false), !tbaa.struct !35
  call void @llvm.lifetime.end.p0(i64 40, ptr %16) #6
  %42 = getelementptr inbounds [4 x %struct.ossl_param_st], ptr %12, i64 0, i64 1
  call void @llvm.lifetime.start.p0(i64 40, ptr %17) #6
  call void @OSSL_PARAM_construct_utf8_string(ptr dead_on_unwind writable sret(%struct.ossl_param_st) align 8 %17, ptr noundef @.str.52, ptr noundef @.str.32, i64 noundef 0)
  call void @llvm.memcpy.p0.p0.i64(ptr align 8 %42, ptr align 8 %17, i64 40, i1 false), !tbaa.struct !35
  call void @llvm.lifetime.end.p0(i64 40, ptr %17) #6
  %43 = getelementptr inbounds [4 x %struct.ossl_param_st], ptr %12, i64 0, i64 2
  call void @llvm.lifetime.start.p0(i64 40, ptr %18) #6
  call void @OSSL_PARAM_construct_octet_string(ptr dead_on_unwind writable sret(%struct.ossl_param_st) align 8 %18, ptr noundef @.str.53, ptr noundef %14, i64 noundef 8)
  call void @llvm.memcpy.p0.p0.i64(ptr align 16 %43, ptr align 8 %18, i64 40, i1 false), !tbaa.struct !35
  call void @llvm.lifetime.end.p0(i64 40, ptr %18) #6
  %44 = getelementptr inbounds [4 x %struct.ossl_param_st], ptr %12, i64 0, i64 3
  call void @llvm.lifetime.start.p0(i64 40, ptr %19) #6
  call void @OSSL_PARAM_construct_end(ptr dead_on_unwind writable sret(%struct.ossl_param_st) align 8 %19)
  call void @llvm.memcpy.p0.p0.i64(ptr align 8 %44, ptr align 8 %19, i64 40, i1 false), !tbaa.struct !35
  call void @llvm.lifetime.end.p0(i64 40, ptr %19) #6
  %45 = load ptr, ptr %7, align 8, !tbaa !19
  %46 = getelementptr inbounds [4 x %struct.ossl_param_st], ptr %12, i64 0, i64 0
  %47 = load ptr, ptr %8, align 8, !tbaa !19
  %48 = call i32 %45(ptr noundef %46, ptr noundef %47)
  store i32 %48, ptr %15, align 4, !tbaa !4
  %49 = load ptr, ptr %11, align 8, !tbaa !22
  store i8 1, ptr %49, align 1, !tbaa !30
  br label %52

50:                                               ; preds = %5
  call void (ptr, i32, ptr, ...) @test_info(ptr noundef @.str.9, i32 noundef 648, ptr noundef @.str.54)
  br label %52

51:                                               ; preds = %5
  call void (ptr, i32, ptr, ...) @test_info(ptr noundef @.str.9, i32 noundef 652, ptr noundef @.str.55)
  br label %52

52:                                               ; preds = %51, %50, %40, %39, %33, %27
  %53 = load i32, ptr %15, align 4, !tbaa !4
  call void (ptr, i32, ptr, ...) @test_info(ptr noundef @.str.9, i32 noundef 656, ptr noundef @.str.56, i32 noundef %53)
  %54 = load i32, ptr %15, align 4, !tbaa !4
  %55 = icmp eq i32 %54, 0
  br i1 %55, label %56, label %62

56:                                               ; preds = %52
  %57 = load i32, ptr @key_deleted, align 4, !tbaa !4
  %58 = icmp eq i32 %57, 0
  br i1 %58, label %59, label %62

59:                                               ; preds = %56
  %60 = load ptr, ptr %14, align 8, !tbaa !26
  call void @fake_rsa_keymgmt_free(ptr noundef %60)
  %61 = load ptr, ptr %11, align 8, !tbaa !22
  store i8 2, ptr %61, align 1, !tbaa !30
  br label %62

62:                                               ; preds = %59, %56, %52
  %63 = load i32, ptr %15, align 4, !tbaa !4
  call void @llvm.lifetime.end.p0(i64 4, ptr %15) #6
  call void @llvm.lifetime.end.p0(i64 8, ptr %14) #6
  call void @llvm.lifetime.end.p0(i64 4, ptr %13) #6
  call void @llvm.lifetime.end.p0(i64 160, ptr %12) #6
  call void @llvm.lifetime.end.p0(i64 8, ptr %11) #6
  ret i32 %63
}