; Function Attrs: nounwind uwtable
define internal noundef i32 @fake_rsa_st_load(ptr noundef captures(none) %0, ptr noundef readonly captures(none) %1, ptr noundef %2, ptr readnone captures(none) %3, ptr readnone captures(none) %4) #1 {
  %6 = alloca [4 x %struct.ossl_param_st], align 16
  %7 = alloca i32, align 4
  %8 = alloca ptr, align 8
  %9 = alloca %struct.ossl_param_st, align 8
  %10 = alloca %struct.ossl_param_st, align 8
  %11 = alloca %struct.ossl_param_st, align 8
  call void @llvm.lifetime.start.p0(i64 160, ptr nonnull %6) #12
  call void @llvm.lifetime.start.p0(i64 4, ptr nonnull %7) #12
  store i32 2, ptr %7, align 4, !tbaa !10
  call void @llvm.lifetime.start.p0(i64 8, ptr nonnull %8) #12
  store ptr null, ptr %8, align 8, !tbaa !17
  %12 = load i8, ptr %0, align 1, !tbaa !14
  switch i8 %12, label %28 [
    i8 0, label %13
    i8 2, label %27
  ]

13:                                               ; preds = %5
  %.b10 = load i1, ptr @key_deleted, align 4
  br i1 %.b10, label %14, label %15

14:                                               ; preds = %13
  store i8 1, ptr %0, align 1, !tbaa !14
  br label %29

15:                                               ; preds = %13
  %16 = tail call noalias ptr @CRYPTO_zalloc(i64 noundef 8, ptr noundef nonnull @.str.9, i32 noundef 49) #12
  %17 = tail call i32 @test_ptr(ptr noundef nonnull @.str.9, i32 noundef 49, ptr noundef nonnull @.str.31, ptr noundef %16) #12
  %.not.i = icmp eq i32 %17, 0
  %..i = select i1 %.not.i, ptr null, ptr %16
  store ptr %..i, ptr %8, align 8, !tbaa !17
  %18 = tail call i32 @test_ptr(ptr noundef nonnull @.str.9, i32 noundef 629, ptr noundef nonnull @.str.49, ptr noundef %..i) #12
  %.not = icmp eq i32 %18, 0
  br i1 %.not, label %29, label %19

19:                                               ; preds = %15
  %20 = getelementptr inbounds nuw i8, ptr %..i, i64 4
  store i32 1, ptr %20, align 4, !tbaa !12
  %21 = tail call i32 @test_int_gt(ptr noundef nonnull @.str.9, i32 noundef 631, ptr noundef nonnull @.str.50, ptr noundef nonnull @.str.22, i32 noundef 1, i32 noundef 0) #12
  %.not11 = icmp eq i32 %21, 0
  br i1 %.not11, label %29, label %22

22:                                               ; preds = %19
  call void @OSSL_PARAM_construct_int(ptr dead_on_unwind nonnull writable sret(%struct.ossl_param_st) align 8 %6, ptr noundef nonnull @.str.51, ptr noundef nonnull %7) #12
  %23 = getelementptr inbounds nuw i8, ptr %6, i64 40
  call void @llvm.lifetime.start.p0(i64 40, ptr nonnull %9) #12
  call void @OSSL_PARAM_construct_utf8_string(ptr dead_on_unwind nonnull writable sret(%struct.ossl_param_st) align 8 %9, ptr noundef nonnull @.str.52, ptr noundef nonnull @.str.32, i64 noundef 0) #12
  call void @llvm.memcpy.p0.p0.i64(ptr noundef nonnull align 8 dereferenceable(40) %23, ptr noundef nonnull align 8 dereferenceable(40) %9, i64 40, i1 false), !tbaa.struct !19
  call void @llvm.lifetime.end.p0(i64 40, ptr nonnull %9) #12
  %24 = getelementptr inbounds nuw i8, ptr %6, i64 80
  call void @llvm.lifetime.start.p0(i64 40, ptr nonnull %10) #12
  call void @OSSL_PARAM_construct_octet_string(ptr dead_on_unwind nonnull writable sret(%struct.ossl_param_st) align 8 %10, ptr noundef nonnull @.str.53, ptr noundef nonnull %8, i64 noundef 8) #12
  call void @llvm.memcpy.p0.p0.i64(ptr noundef nonnull align 16 dereferenceable(40) %24, ptr noundef nonnull align 8 dereferenceable(40) %10, i64 40, i1 false), !tbaa.struct !19
  call void @llvm.lifetime.end.p0(i64 40, ptr nonnull %10) #12
  %25 = getelementptr inbounds nuw i8, ptr %6, i64 120
  call void @llvm.lifetime.start.p0(i64 40, ptr nonnull %11) #12
  call void @OSSL_PARAM_construct_end(ptr dead_on_unwind nonnull writable sret(%struct.ossl_param_st) align 8 %11) #12
  call void @llvm.memcpy.p0.p0.i64(ptr noundef nonnull align 8 dereferenceable(40) %25, ptr noundef nonnull align 8 dereferenceable(40) %11, i64 40, i1 false), !tbaa.struct !19
  call void @llvm.lifetime.end.p0(i64 40, ptr nonnull %11) #12
  %26 = call i32 %1(ptr noundef nonnull %6, ptr noundef %2) #12
  store i8 1, ptr %0, align 1, !tbaa !14
  br label %29

27:                                               ; preds = %5
  tail call void (ptr, i32, ptr, ...) @test_info(ptr noundef nonnull @.str.9, i32 noundef 648, ptr noundef nonnull @.str.54) #12
  br label %29

28:                                               ; preds = %5
  tail call void (ptr, i32, ptr, ...) @test_info(ptr noundef nonnull @.str.9, i32 noundef 652, ptr noundef nonnull @.str.55) #12
  br label %29

29:                                               ; preds = %19, %15, %28, %27, %22, %14
  %.0 = phi i32 [ 0, %28 ], [ 0, %27 ], [ 0, %14 ], [ %26, %22 ], [ 0, %19 ], [ 0, %15 ]
  call void (ptr, i32, ptr, ...) @test_info(ptr noundef nonnull @.str.9, i32 noundef 656, ptr noundef nonnull @.str.56, i32 noundef %.0) #12
  %30 = icmp ne i32 %.0, 0
  %.b = load i1, ptr @key_deleted, align 4
  %or.cond.not = select i1 %30, i1 true, i1 %.b
  br i1 %or.cond.not, label %33, label %31

31:                                               ; preds = %29
  %32 = load ptr, ptr %8, align 8, !tbaa !17
  call void @CRYPTO_free(ptr noundef %32, ptr noundef nonnull @.str.9, i32 noundef 63) #12
  store i8 2, ptr %0, align 1, !tbaa !14
  br label %33

33:                                               ; preds = %31, %29
  call void @llvm.lifetime.end.p0(i64 8, ptr nonnull %8) #12
  call void @llvm.lifetime.end.p0(i64 4, ptr nonnull %7) #12
  call void @llvm.lifetime.end.p0(i64 160, ptr nonnull %6) #12
  ret i32 %.0
}